target datalayout = "e-m:e-p270:32:32-p271:32:32-p272:64:64-i64:64-i128:128-f80:128-n8:16:32:64-S128"
target triple = "x86_64-pc-linux-gnu"

%struct.RArray = type { %struct.RBasic, %union.anon.28 }
%struct.RBasic = type { i64, i64 }
%union.anon.28 = type { %struct.anon.29 }
%struct.anon.29 = type { i64, %union.anon.30, ptr }
%union.anon.30 = type { i64 }

; Function Attrs: inlinehint nounwind sspstrong willreturn memory(read) uwtable
define internal i64 @RB_FL_TEST_RAW(i64 noundef %0, i64 noundef %1) #4 {
  %3 = alloca i64, align 8
  %4 = alloca i64, align 8
  store i64 %0, ptr %3, align 8, !tbaa !13
  store i64 %1, ptr %4, align 8, !tbaa !13
  %5 = load i64, ptr %3, align 8, !tbaa !13
  %6 = inttoptr i64 %5 to ptr
  %7 = getelementptr inbounds nuw %struct.RBasic, ptr %6, i32 0, i32 0
  %8 = load i64, ptr %7, align 8, !tbaa !107
  %9 = load i64, ptr %4, align 8, !tbaa !13
  %10 = and i64 %8, %9
  ret i64 %10
}

; Function Attrs: inlinehint nounwind sspstrong willreturn memory(read) uwtable
define internal i64 @RARRAY_EMBED_LEN(i64 noundef %0) #4 {
  %2 = alloca i64, align 8
  %3 = alloca i64, align 8
  store i64 %0, ptr %2, align 8, !tbaa !13
  call void @llvm.lifetime.start.p0(i64 8, ptr %3) #5
  %4 = load i64, ptr %2, align 8, !tbaa !13
  %5 = inttoptr i64 %4 to ptr
  %6 = getelementptr inbounds nuw %struct.RBasic, ptr %5, i32 0, i32 0
  %7 = load i64, ptr %6, align 8, !tbaa !107
  store i64 %7, ptr %3, align 8, !tbaa !13
  %8 = load i64, ptr %3, align 8, !tbaa !13
  %9 = and i64 %8, 4161536
  store i64 %9, ptr %3, align 8, !tbaa !13
  %10 = load i64, ptr %3, align 8, !tbaa !13
  %11 = lshr i64 %10, 15
  store i64 %11, ptr %3, align 8, !tbaa !13
  %12 = load i64, ptr %3, align 8, !tbaa !13
  call void @llvm.lifetime.end.p0(i64 8, ptr %3) #5
  ret i64 %12
}

; Function Attrs: inlinehint nounwind sspstrong willreturn memory(read) uwtable
define internal zeroext i1 @RB_FL_ANY_RAW(i64 noundef %0, i64 noundef %1) #4 {
  %3 = alloca i64, align 8
  %4 = alloca i64, align 8
  store i64 %0, ptr %3, align 8, !tbaa !13
  store i64 %1, ptr %4, align 8, !tbaa !13
  %5 = load i64, ptr %3, align 8, !tbaa !13
  %6 = load i64, ptr %4, align 8, !tbaa !13
  %7 = call i64 @RB_FL_TEST_RAW(i64 noundef %5, i64 noundef %6) #25
  %8 = icmp ne i64 %7, 0
  ret i1 %8
}

; Function Attrs: inlinehint nounwind sspstrong willreturn memory(read) uwtable
define internal i64 @rb_array_len(i64 noundef %0) #4 {
  %2 = alloca i64, align 8
  %3 = alloca i64, align 8
  store i64 %0, ptr %3, align 8, !tbaa !13
  %4 = load i64, ptr %3, align 8, !tbaa !13
  %5 = call zeroext i1 @RB_FL_ANY_RAW(i64 noundef %4, i64 noundef 8192) #25
  br i1 %5, label %6, label %9

6:                                                ; preds = %1
  %7 = load i64, ptr %3, align 8, !tbaa !13
  %8 = call i64 @RARRAY_EMBED_LEN(i64 noundef %7) #25
  store i64 %8, ptr %2, align 8
  br label %15

9:                                                ; preds = %1
  %10 = load i64, ptr %3, align 8, !tbaa !13
  %11 = inttoptr i64 %10 to ptr
  %12 = getelementptr inbounds nuw %struct.RArray, ptr %11, i32 0, i32 1
  %13 = getelementptr inbounds nuw %struct.anon.29, ptr %12, i32 0, i32 0
  %14 = load i64, ptr %13, align 8, !tbaa !15
  store i64 %14, ptr %2, align 8
  br label %15

15:                                               ; preds = %9, %6
  %16 = load i64, ptr %2, align 8
  ret i64 %16
}

; Function Attrs: nounwind sspstrong uwtable
define hidden i64 @rb_yjit_array_len(i64 noundef %0) #0 {
  %2 = alloca i64, align 8
  store i64 %0, ptr %2, align 8, !tbaa !13
  %3 = load i64, ptr %2, align 8, !tbaa !13
  %4 = call i64 @rb_array_len(i64 noundef %3) #25
  ret i64 %4
}